Certificate:
    Data:
        Version: 1 (0x0)
        Serial Number: 1048634 (0x10003a)
        Signature Algorithm: md5WithRSAEncryption
        Issuer: O=GENESI-DR Project, OU=GENESI-DR Certificate Authority/emailAddress=ca@genesi-dr.eu, L=Europe, ST=EU, C=EU, CN=GENESI-DR Certificate Authority
        Validity
            Not Before: Sep 30 08:57:40 2009 GMT
            Not After : Sep 30 08:57:40 2010 GMT
        Subject: O=GENESI-DR Project, OU=University of Reading, CN=Adit Santokhee
        Subject Public Key Info:
            Public Key Algorithm: rsaEncryption
            RSA Public Key: (1024 bit)
                Modulus (1024 bit):
                    00:a6:45:99:bf:c8:10:9a:3a:48:61:3f:9e:81:a1:
                    02:02:38:11:c5:a5:fc:98:4a:e4:11:78:bf:33:4b:
                    b8:5d:84:96:83:d6:a9:5c:87:d9:49:67:d2:d3:69:
                    30:c8:a9:9c:f6:63:15:9d:d1:89:99:b9:da:1c:e1:
                    00:a6:df:85:b5:d9:ac:0e:de:28:13:f8:e9:0f:2d:
                    33:50:f5:c3:08:5a:91:28:f7:b2:fb:22:a6:87:24:
                    f1:1c:95:80:05:d6:22:e3:51:c8:80:44:fb:b7:c9:
                    7c:3d:f7:d0:04:6b:b3:09:3d:2c:12:94:01:f9:70:
                    2d:5f:ed:99:4b:4c:4c:19:c7
                Exponent: 65537 (0x10001)
    Signature Algorithm: md5WithRSAEncryption
        06:90:ef:63:ae:1b:22:9f:0e:a1:52:6b:f3:da:df:e9:5f:18:
        37:42:d8:18:8a:b2:84:2a:a6:c7:82:4f:6a:e2:03:2d:6e:ea:
        02:41:23:b0:26:a0:ac:b8:69:92:91:3d:cb:65:f3:60:3f:db:
        9c:03:4d:d2:ef:e0:0f:17:9a:01:72:dc:d1:8f:2c:b8:47:f4:
        40:2d:89:2d:02:93:21:48:43:16:e8:ea:e6:bd:ab:23:64:ab:
        65:20:fb:ca:80:a3:93:fb:5e:1c:6e:5f:4c:ef:b7:aa:71:c8:
        8f:d2:91:08:f5:0c:a2:1f:fe:35:08:7c:44:d2:17:53:6d:4b:
        97:a8
-----BEGIN CERTIFICATE-----
MIICgjCCAesCAxAAOjANBgkqhkiG9w0BAQQFADCBuzEaMBgGA1UEChMRR0VORVNJ
LURSIFByb2plY3QxKDAmBgNVBAsTH0dFTkVTSS1EUiBDZXJ0aWZpY2F0ZSBBdXRo
b3JpdHkxHjAcBgkqhkiG9w0BCQEWD2NhQGdlbmVzaS1kci5ldTEPMA0GA1UEBxMG
RXVyb3BlMQswCQYDVQQIEwJFVTELMAkGA1UEBhMCRVUxKDAmBgNVBAMTH0dFTkVT
SS1EUiBDZXJ0aWZpY2F0ZSBBdXRob3JpdHkwHhcNMDkwOTMwMDg1NzQwWhcNMTAw
OTMwMDg1NzQwWjBVMRowGAYDVQQKExFHRU5FU0ktRFIgUHJvamVjdDEeMBwGA1UE
CxMVVW5pdmVyc2l0eSBvZiBSZWFkaW5nMRcwFQYDVQQDEw5BZGl0IFNhbnRva2hl
ZTCBnzANBgkqhkiG9w0BAQEFAAOBjQAwgYkCgYEApkWZv8gQmjpIYT+egaECAjgR
xaX8mErkEXi/M0u4XYSWg9apXIfZSWfS02kwyKmc9mMVndGJmbnaHOEApt+Ftdms
Dt4oE/jpDy0zUPXDCFqRKPey+yKmhyTxHJWABdYi41HIgET7t8l8PffQBGuzCT0s
EpQB+XAtX+2ZS0xMGccCAwEAATANBgkqhkiG9w0BAQQFAAOBgQAGkO9jrhsinw6h
Umvz2t/pXxg3QtgYirKEKqbHgk9q4gMtbuoCQSOwJqCsuGmSkT3LZfNgP9ucA03S
7+APF5oBctzRjyy4R/RALYktApMhSEMW6OrmvasjZKtlIPvKgKOT+14cbl9M77eq
cciP0pEI9QyiH/41CHxE0hdTbUuXqA==
-----END CERTIFICATE-----
